(lp0
I77
aI39
aI39
aI76
aI86
aI50
aI171
aI76
aI17
aI255
aI255
aI255
aI106
aI100
aI255
aI15
aI12
aI5
aI21
aI12
aI136
aI12
aI5
aI21
aI12
aI136
aI12
aI5
aI21
aI12
aI136
aI255
aI255
aI255
aI10
aI1
aI24
aI13
aI255
aI255
aI255
aI255
aI255
aI255
aI132
aI11
aI105
aI12
aI10
aI16
aI1
aI1
aI245
aI18
aI16
aI61
aI103
aI29
aI228
aI68
aI187
aI124
aI45
aI150
aI10
aI1
aI157
aI119
aI86
aI11
aI67
aI133
aI34
aI133
aI3
aI129
aI92
aI133
aI15
aI255
aI255
aI255
aI255
aI255
aI10
aI200
aI50
aI255
aI255
aI255
aI255
aI255
aI255
aI255
aI255
aI255
aI12
aI5
aI21
aI12
aI136
aI47
aI26
aI255
aI255
aI132
aI11
aI104
aI12
aI255
aI255
aI255
aI255
aI255
aI255
aI255
aI57
aI51
aI0
aI0
aI3
aI185
aI124
aI11
aI150
aI255
aI255
aI255
aI255
aI255
aI255
aI255
aI255
aI255
aI255
aI255
aI255
aI255
aI255
aI255
aI255
aI255
aI255
aI255
aI255
aI255
aI255
aI255
aI255
aI255
aI255
aI255
aI255
aI255
aI255
aI255
aI255
aI255
aI255
aI255
aI255
aI255
aI255
aI255
aI255
aI255
aI255
aI255
aI255
aI255
aI255
aI255
aI255
aI255
aI255
aI255
aI255
aI255
aI255
aI255
aI255
aI255
aI255
aI255
aI255
aI255
aI255
aI255
aI255
aI255
aI255
aI255
aI255
aI255
aI255
aI255
aI255
aI255
aI255
aI255
aI255
aI255
aI255
aI255
aI255
aI255
aI255
aI255
aI255
aI255
aI255
aI255
aI255
aI255
aI255
aI255
aI255
aI255
aI255
aI255
aI255
aI255
aI255
aI255
aI255
aI255
aI255
aI255
aI255
aI255
aI255
aI255
aI255
aI255
aI255
aI255
aI255
aI255
aI255
aI255
aI255
aI255
aI255
aI255
aI255
aI255
aI255
aI255
aI255
aI255
aI255
aI255
aI255
aI255
aI255
aI255
aI255
aI255
aI255
aI255
aI255
aI255
aI255
aI255
aI255
aI255
aI255
aI255
aI255
aI255
aI255
aI255
aI255
aI255
aI255
aI255
aI255
aI255
aI255
aI255
aI255
aI255
aI255
aI255
aI255
aI255
aI255
aI255
aI255
aI255
aI255
aI255
aI255
aI255
aI255
aI255
aI255
aI255
aI255
aI255
aI255
aI255
aI255
aI255
aI255
aI255
aI255
aI255
aI255
aI255
aI255
aI255
aI255
aI255
aI255
aI255
aI255
aI255
aI255
aI255
aI255
aI255
aI255
aI255
aI255
aI255
aI255
aI255
aI255
aI255
aI255
aI255
aI255
aI255
aI255
aI255
aI255
aI255
aI255
aI255
aI255
aI255
aI255
aI255
aI255
aI255
aI255
aI255
aI255
aI255
aI255
aI255
aI255
aI255
aI255
aI255
aI255
aI255
aI255
aI255
aI255
aI255
aI255
aI255
aI255
aI255
aI255
aI255
aI255
aI255
aI255
aI255
aI255
aI255
aI255
aI255
aI255
aI255
aI255
aI255
aI255
aI255
aI255
aI255
aI255
aI255
aI255
aI255
aI255
aI255
aI255
aI255
aI255
aI255
aI255
aI255
aI255
aI255
aI255
aI255
aI255
aI255
aI255
aI255
aI255
aI255
aI255
aI255
aI255
aI255
aI255
aI255
aI255
aI255
aI255
aI255
aI255
aI255
aI255
aI255
aI255
aI255
aI255
aI255
aI255
aI255
aI255
aI255
aI255
aI255
aI255
aI255
aI255
aI255
aI255
aI255
aI255
aI255
aI255
aI255
aI255
aI255
aI255
aI255
aI255
aI255
aI255
aI255
aI255
aI255
aI255
aI255
aI255
aI255
aI255
aI255
aI255
aI255
aI255
aI255
aI255
aI255
aI255
aI255
aI255
aI255
aI255
aI255
aI255
aI255
aI255
aI255
aI255
aI255
aI255
aI255
aI255
aI255
aI255
aI255
aI255
aI255
aI255
aI255
aI255
aI255
aI255
aI255
aI255
aI255
aI255
aI255
aI255
aI255
aI255
aI255
aI255
aI255
aI255
aI255
aI255
aI255
aI255
aI255
aI255
aI255
aI255
aI255
aI255
aI255
aI255
aI255
aI255
aI255
aI255
aI255
aI255
aI255
aI255
aI255
aI255
aI255
aI255
aI255
aI255
aI255
aI255
aI255
aI255
aI255
aI255
aI255
aI255
aI255
aI255
aI255
aI255
aI255
aI255
aI255
aI255
aI255
aI255
aI255
aI255
aI255
aI255
aI255
aI255
aI255
aI255
aI255
aI255
aI255
aI255
aI255
aI255
aI255
aI255
aI255
aI255
aI255
aI255
aI255
aI255
aI255
aI255
aI255
aI255
aI255
aI255
aI255
aI255
aI255
aI255
aI255
aI255
aI255
aI255
aI255
aI255
aI255
aI255
aI255
aI255
aI255
aI255
aI255
aI255
aI255
aI255
aI255
aI255
aI255
aI255
aI255
aI255
aI255
aI255
aI255
aI255
aI255
aI255
aI255
aI255
aI255
aI255
aI255
aI255
aI255
aI255
aI255
aI255
aI255
aI255
aI255
aI255
aI255
aI255
aI255
aI255
aI255
aI255
aI255
aI255
aI255
aI255
aI255
aI255
aI255
aI255
aI255
aI255
aI255
aI255
aI255
aI255
aI255
aI255
aI255
aI255
aI255
aI255
aI255
aI255
aI255
aI255
aI255
aI255
aI255
aI255
aI255
aI255
aI255
aI255
aI255
aI255
aI255
aI255
aI255
aI255
aI255
aI255
aI255
aI255
aI255
aI255
aI255
aI255
aI255
aI255
aI255
aI255
aI255
aI255
aI255
aI255
aI255
aI255
aI255
aI255
aI255
aI255
aI255
aI255
aI255
aI255
aI255
aI255
aI255
aI255
aI255
aI255
aI255
aI255
aI255
aI255
aI255
aI255
aI255
aI255
aI255
aI255
aI255
aI255
aI255
aI255
aI255
aI255
aI255
aI255
aI255
aI255
aI255
aI255
aI255
aI255
aI255
aI255
aI255
aI255
aI255
aI255
aI255
aI255
aI255
aI255
aI255
aI255
aI255
aI255
aI255
aI255
aI255
aI255
aI255
aI255
aI255
aI255
aI255
aI255
aI255
aI255
aI255
aI255
aI255
aI255
aI255
aI255
aI255
aI255
aI255
aI255
aI255
aI255
aI255
aI255
aI255
aI255
aI255
aI255
aI255
aI255
aI255
aI255
aI255
aI255
aI255
aI255
aI255
aI255
aI255
aI255
aI255
aI255
aI255
aI255
aI255
aI255
aI255
aI255
aI255
aI255
aI255
aI255
aI255
aI255
aI255
aI255
aI255
aI255
aI255
aI255
aI255
aI255
aI255
aI255
aI255
aI255
aI255
aI255
aI255
aI255
aI255
aI255
aI255
aI255
aI255
aI255
aI255
aI255
aI255
aI255
aI255
aI255
aI255
aI255
aI255
aI255
aI255
aI255
aI255
aI255
aI255
aI255
aI255
aI255
aI255
aI255
aI255
aI255
aI255
aI255
aI255
aI255
aI255
aI255
aI255
aI255
aI255
aI255
aI255
aI255
aI255
aI255
aI255
aI255
aI255
aI255
aI255
aI255
aI255
aI255
aI255
aI255
aI255
aI255
aI255
aI255
aI255
aI255
aI255
aI255
aI255
aI255
aI255
aI255
aI255
aI255
aI255
aI255
aI255
aI255
aI255
aI255
aI255
aI255
aI255
aI255
aI255
aI255
aI255
aI255
aI255
aI255
aI255
aI255
aI255
aI255
aI255
aI255
aI255
aI255
aI255
aI255
aI255
aI255
aI255
aI255
aI255
aI255
aI255
aI255
aI255
aI255
aI255
aI255
aI255
aI255
aI255
aI255
aI255
aI255
aI255
aI255
aI255
aI255
aI255
aI255
aI255
aI255
aI255
aI255
aI255
aI255
aI255
aI255
aI255
aI255
aI255
aI255
aI255
aI255
aI255
aI255
aI255
aI255
aI255
aI255
aI255
aI255
aI255
aI255
aI255
aI255
aI255
aI255
aI255
aI255
aI255
aI255
aI255
aI255
aI255
aI255
aI255
aI255
aI255
aI255
aI255
aI255
aI255
aI255
aI255
aI255
aI255
aI255
aI255
aI255
aI255
aI255
aI255
aI255
aI255
aI255
aI255
aI255
aI255
aI255
aI255
aI255
aI255
aI255
aI255
aI255
aI255
aI255
aI255
aI255
aI255
aI255
aI255
aI255
aI255
aI255
aI255
aI255
aI255
aI255
aI255
aI255
aI255
aI255
aI255
aI255
aI255
aI255
aI255
aI255
aI255
aI255
aI255
aI255
aI255
aI255
aI255
aI255
aI255
aI255
aI255
aI255
aI255
aI255
aI255
aI255
aI255
aI255
aI255
aI255
aI255
aI255
aI255
aI255
aI255
aI255
aI255
aI255
aI255
aI255
aI255
aI255
aI255
aI255
aI255
aI255
aI255
aI255
aI255
aI255
aI255
aI255
aI255
aI255
aI255
aI255
aI255
aI255
aI255
aI255
aI255
aI255
aI255
aI255
aI255
aI255
aI255
aI255
aI255
aI255
aI255
aI255
aI255
aI255
aI255
aI255
aI255
aI255
aI255
aI255
aI255
aI255
aI255
aI255
aI255
aI255
aI255
aI255
aI255
aI255
aI255
aI255
aI255
aI255
aI255
aI255
aI255
aI255
aI255
aI255
aI255
aI255
aI255
aI255
aI255
aI255
aI255
aI255
aI255
aI255
aI255
aI255
aI255
aI255
aI255
aI255
aI255
aI255
aI255
aI255
aI255
aI255
aI255
aI255
aI255
aI255
aI255
aI255
aI255
aI255
aI255
aI255
aI255
aI255
aI255
aI255
aI255
aI255
aI255
aI255
aI255
aI255
aI255
aI255
aI255
aI255
aI255
aI255
aI255
aI255
aI255
aI255
aI255
aI255
aI255
aI255
aI255
aI255
aI255
aI255
aI255
aI255
aI255
aI255
aI255
aI255
aI255
aI255
aI255
aI255
aI255
aI255
aI255
aI255
aI255
aI255
aI255
aI255
aI255
aI255
aI255
aI255
aI255
aI255
aI255
aI255
aI255
aI255
aI255
aI255
aI255
aI255
aI255
aI255
aI255
aI255
aI255
aI255
aI255
aI255
aI255
aI255
aI255
aI255
aI255
aI255
aI255
aI255
aI255
aI255
aI255
aI255
aI255
aI255
aI255
aI255
aI255
aI255
aI255
aI255
aI255
aI255
aI255
aI255
aI255
aI255
aI255
aI255
aI255
aI255
aI255
aI255
aI255
aI255
aI255
aI255
aI255
aI255
aI255
aI255
aI255
aI255
aI255
aI255
aI255
aI255
aI255
aI255
aI255
aI255
aI255
aI255
aI255
aI255
aI255
aI255
aI255
aI255
aI255
aI255
aI255
aI255
aI255
aI255
aI255
aI255
aI255
aI255
aI255
aI255
aI255
aI255
aI255
aI255
aI255
aI255
aI255
aI255
aI255
aI255
aI255
aI255
aI255
aI255
aI255
aI255
aI255
aI255
aI255
aI255
aI255
aI255
aI255
aI255
aI255
aI255
aI255
aI255
aI255
aI255
aI255
aI255
aI255
aI255
aI255
aI255
aI255
aI255
aI255
aI255
aI255
aI255
aI255
aI255
aI255
aI255
aI255
aI255
aI255
aI255
aI255
aI255
aI255
aI255
aI255
aI255
aI255
aI255
aI255
aI255
aI255
aI255
aI255
aI255
aI255
aI255
aI255
aI255
aI255
aI255
aI255
aI255
aI255
aI255
aI255
aI223
aI156
aI58
aI157
aI89
aI159
aI73
aI158
aI165
aI158
aI239
aI157
aI212
aI161
aI106
aI160
aI15
aI160
aI89
aI159
aI212
aI161
aI20
aI166
aI106
aI160
aI138
aI162
aI255
aI158
aI202
aI166
aI197
aI160
aI138
aI162
aI228
aI162
aI4
aI165
aI64
aI163
aI255
aI158
aI170
aI164
aI197
aI160
aI149
aI157
aI138
aI162
aI106
aI160
aI244
aI163
aI244
aI163
aI117
aI155
aI73
aI158
aI64
aI163
aI122
aI161
aI212
aI161
aI165
aI158
aI255
aI158
aI95
aI165
aI197
aI160
aI122
aI161
aI78
aI164
aI217
aI167
aI138
aI162
aI228
aI162
aI154
aI163
aI36
aI167
aI4
aI165
aI202
aI166
aI4
aI165
aI64
aI163
aI69
aI169
aI4
aI165
aI170
aI164
aI154
aI163
aI78
aI164
aI197
aI160
aI244
aI163
aI138
aI162
aI186
aI165
aI15
aI160
aI122
aI161
aI228
aI162
aI233
aI168
aI47
aI162
aI89
aI159
aI149
aI157
aI78
aI164
aI154
aI163
aI15
aI160
aI4
aI165
aI47
aI162
aI154
aI163
aI78
aI164
aI170
aI164
aI20
aI166
aI36
aI167
aI228
aI162
aI53
aI168
aI202
aI166
aI186
aI165
aI217
aI167
aI170
aI164
aI4
aI165
aI95
aI165
aI202
aI166
aI95
aI165
aI84
aI170
aI4
aI165
aI202
aI166
aI69
aI169
aI170
aI164
aI143
aI168
aI228
aI162
aI143
aI168
aI127
aI167
aI95
aI165
aI223
aI156
aI233
aI168
aI202
aI166
aI143
aI168
aI170
aI164
aI233
aI168
aI95
aI165
aI159
aI169
aI127
aI167
aI217
aI167
aI175
aI170
aI100
aI171
aI143
aI168
aI127
aI167
aI175
aI170
aI84
aI170
aI233
aI168
aI100
aI171
aI111
aI166
aI143
aI168
aI202
aI166
aI217
aI167
aI233
aI168
aI69
aI169
aI217
aI167
aI159
aI169
aI84
aI170
aI9
aI171
aI132
aI173
aI36
aI167
aI111
aI166
aI233
aI168
aI53
aI168
aI149
aI157
aI223
aI156
aI106
aI160
aI255
aI158
aI89
aI159
aI149
aI157
aI106
aI160
aI47
aI162
aI106
aI160
aI106
aI160
aI106
aI160
aI106
aI160
aI78
aI164
aI106
aI160
aI133
aI156
aI181
aI159
aI15
aI160
aI197
aI160
aI223
aI156
aI255
aI158
aI15
aI160
aI149
aI157
aI15
aI160
aI15
aI160
aI212
aI161
aI255
aI158
aI53
aI151
aI212
aI161
aI170
aI164
aI73
aI158
aI133
aI156
aI117
aI155
aI154
aI163
aI212
aI161
aI239
aI157
aI78
aI164
aI239
aI157
aI78
aI164
aI106
aI160
aI73
aI158
aI181
aI159
aI255
aI158
aI244
aI163
aI73
aI158
aI239
aI157
aI149
aI157
aI154
aI163
aI78
aI164
aI47
aI162
aI20
aI166
aI47
aI162
aI239
aI157
aI239
aI157
aI212
aI161
aI255
aI158
aI170
aI164
aI255
aI158
aI47
aI162
aI117
aI155
aI31
aI161
aI170
aI164
aI15
aI160
aI255
aI158
aI138
aI162
aI64
aI163
aI64
aI163
aI95
aI165
aI53
aI168
aI78
aI164
aI255
aI158
aI4
aI165
aI15
aI160
aI170
aI164
aI244
aI163
aI212
aI161
aI122
aI161
aI244
aI163
aI36
aI167
aI95
aI165
aI165
aI158
aI244
aI163
aI197
aI160
aI4
aI165
aI78
aI164
aI111
aI166
aI244
aI163
aI138
aI162
aI181
aI159
aI31
aI161
aI111
aI166
aI228
aI162
aI64
aI163
aI154
aI163
aI20
aI166
aI20
aI166
aI73
aI158
aI154
aI163
aI4
aI165
aI202
aI166
aI31
aI161
aI143
aI168
aI127
aI167
aI36
aI167
aI159
aI169
aI116
aI172
aI244
aI163
aI69
aI169
aI212
aI161
aI20
aI166
aI186
aI165
aI9
aI171
aI191
aI171
aI244
aI163
aI122
aI161
aI78
aI164
aI36
aI167
aI20
aI166
aI186
aI165
aI202
aI166
aI127
aI167
aI244
aI163
aI217
aI167
aI143
aI168
aI53
aI168
aI111
aI166
aI95
aI165
aI78
aI164
aI20
aI166
aI135
aI251
aI31
aI20
aI92
aI22
aI17
aI29
aI241
aI8
aI198
aI35
aI92
aI22
aI17
aI29
aI46
aI11
aI212
aI26
aI198
aI35
aI46
aI11
aI198
aI35
aI212
aI26
aI227
aI17
aI227
aI17
aI227
aI17
aI63
aI40
aI60
aI2
aI198
aI35
aI212
aI26
aI106
aI13
aI63
aI40
aI31
aI20
aI212
aI26
aI92
aI22
aI212
aI26
aI181
aI6
aI89
aI240
aI60
aI2
aI31
aI20
aI106
aI13
aI75
aI249
aI121
aI4
aI227
aI17
aI196
aI253
aI121
aI4
aI121
aI4
aI152
aI24
aI15
aI247
aI106
aI13
aI17
aI29
aI0
aI0
aI46
aI11
aI121
aI4
aI227
aI17
aI0
aI0
aI212
aI26
aI181
aI6
aI92
aI22
aI227
aI17
aI106
aI13
aI46
aI11
aI46
aI11
aI121
aI4
aI135
aI251
aI0
aI0
aI106
aI13
aI31
aI20
aI31
aI20
aI46
aI11
aI31
aI20
aI31
aI20
aI167
aI15
aI60
aI2
aI121
aI4
aI210
aI244
aI196
aI253
aI135
aI251
aI241
aI8
aI89
aI240
aI75
aI249
aI254
aI217
aI210
aI244
aI196
aI253
aI104
aI231
aI104
aI231
aI44
aI229
aI15
aI247
aI44
aI229
aI164
aI233
aI104
aI231
aI75
aI249
aI15
aI247
aI75
aI249
aI193
aI215
aI15
aI247
aI210
aI244
aI0
aI0
aI135
aI251
aI150
aI242
aI210
aI244
aI44
aI229
aI44
aI229
aI179
aI224
aI89
aI240
aI87
aI202
aI179
aI224
aI225
aI235
aI118
aI222
aI44
aI229
aI104
aI231
aI12
aI209
aI58
aI220
aI222
aI197
aI254
aI217
aI133
aI213
aI177
aI186
aI208
aI206
aI162
aI195
aI254
aI217
aI193
aI215
aI208
aI206
aI193
aI215
aI208
aI206
aI87
aI202
aI254
aI217
aI12
aI209
aI162
aI195
aI73
aI211
aI87
aI202
aI193
aI215
aI104
aI231
aI208
aI206
aI44
aI229
aI133
aI213
aI133
aI213
aI254
aI217
aI135
aI251
aI227
aI17
aI212
aI26
aI138
aI33
aI46
aI11
aI198
aI35
aI92
aI22
aI17
aI29
aI241
aI8
aI152
aI24
aI77
aI31
aI241
aI8
aI138
aI33
aI152
aI24
aI167
aI15
aI227
aI17
aI167
aI15
aI2
aI38
aI0
aI0
aI138
aI33
aI212
aI26
aI46
aI11
aI198
aI35
aI31
aI20
aI212
aI26
aI92
aI22
aI17
aI29
aI241
aI8
aI15
aI247
aI241
aI8
aI212
aI26
aI106
aI13
aI15
aI247
aI121
aI4
aI227
aI17
aI196
aI253
aI181
aI6
aI121
aI4
aI212
aI26
aI135
aI251
aI106
aI13
aI77
aI31
aI0
aI0
aI46
aI11
aI121
aI4
aI31
aI20
aI60
aI2
aI17
aI29
aI241
aI8
aI152
aI24
aI31
aI20
aI167
aI15
aI106
aI13
aI106
aI13
aI181
aI6
aI135
aI251
aI60
aI2
aI167
aI15
aI92
aI22
aI31
aI20
aI46
aI11
aI227
aI17
aI31
aI20
aI167
aI15
aI60
aI2
aI60
aI2
aI15
aI247
aI0
aI0
aI196
aI253
aI241
aI8
aI150
aI242
aI75
aI249
aI193
aI215
aI210
aI244
aI196
aI253
aI44
aI229
aI44
aI229
aI44
aI229
aI210
aI244
aI239
aI226
aI164
aI233
aI104
aI231
aI15
aI247
aI15
aI247
aI75
aI249
aI133
aI213
aI15
aI247
aI150
aI242
aI0
aI0
aI196
aI253
aI210
aI244
aI75
aI249
aI164
aI233
aI104
aI231
aI239
aI226
aI150
aI242
aI148
aI204
aI179
aI224
aI29
aI238
aI58
aI220
aI104
aI231
aI104
aI231
aI12
aI209
aI118
aI222
aI27
aI200
aI58
aI220
aI193
aI215
aI237
aI188
aI12
aI209
aI222
aI197
aI118
aI222
aI254
aI217
aI12
aI209
aI254
aI217
aI73
aI211
aI148
aI204
aI118
aI222
aI133
aI213
aI27
aI200
aI73
aI211
aI87
aI202
aI193
aI215
aI164
aI233
aI12
aI209
aI44
aI229
aI133
aI213
aI193
aI215
aI254
aI217
aI196
aI253
aI31
aI20
aI212
aI26
aI198
aI35
aI46
aI11
aI198
aI35
aI92
aI22
aI212
aI26
aI241
aI8
aI92
aI22
aI77
aI31
aI241
aI8
aI138
aI33
aI152
aI24
aI167
aI15
aI167
aI15
aI167
aI15
aI2
aI38
aI196
aI253
aI138
aI33
aI212
aI26
aI46
aI11
aI2
aI38
aI227
aI17
aI152
aI24
aI31
aI20
aI17
aI29
aI181
aI6
aI210
aI244
aI241
aI8
aI212
aI26
aI227
aI17
aI135
aI251
aI121
aI4
aI31
aI20
aI196
aI253
aI121
aI4
aI121
aI4
aI212
aI26
aI75
aI249
aI106
aI13
aI77
aI31
aI0
aI0
aI46
aI11
aI121
aI4
aI31
aI20
aI121
aI4
aI212
aI26
aI241
aI8
aI152
aI24
aI31
aI20
aI167
aI15
aI46
aI11
aI46
aI11
aI181
aI6
aI135
aI251
aI60
aI2
aI167
aI15
aI31
aI20
aI31
aI20
aI46
aI11
aI31
aI20
aI31
aI20
aI227
aI17
aI181
aI6
aI181
aI6
aI75
aI249
aI60
aI2
aI196
aI253
aI241
aI8
aI89
aI240
aI75
aI249
aI254
aI217
aI210
aI244
aI135
aI251
aI44
aI229
aI44
aI229
aI44
aI229
aI150
aI242
aI239
aI226
aI164
aI233
aI104
aI231
aI75
aI249
aI15
aI247
aI75
aI249
aI193
aI215
aI15
aI247
aI150
aI242
aI0
aI0
aI196
aI253
aI150
aI242
aI15
aI247
aI164
aI233
aI104
aI231
aI239
aI226
aI150
aI242
aI208
aI206
aI239
aI226
aI29
aI238
aI118
aI222
aI44
aI229
aI104
aI231
aI73
aI211
aI118
aI222
aI87
aI202
aI58
aI220
aI193
aI215
aI237
aI188
aI12
aI209
aI222
aI197
aI118
aI222
aI58
aI220
aI208
aI206
aI254
aI217
aI73
aI211
aI87
aI202
aI118
aI222
aI133
aI213
aI222
aI197
aI133
aI213
aI148
aI204
aI254
aI217
aI164
aI233
aI208
aI206
aI44
aI229
aI133
aI213
aI193
aI215
aI58
aI220
aI0
aI0
aI92
aI22
aI212
aI26
aI138
aI33
aI46
aI11
aI198
aI35
aI31
aI20
aI17
aI29
aI181
aI6
aI152
aI24
aI77
aI31
aI46
aI11
aI138
aI33
aI152
aI24
aI106
aI13
aI167
aI15
aI167
aI15
aI63
aI40
aI196
aI253
aI138
aI33
aI212
aI26
aI46
aI11
aI2
aI38
aI227
aI17
aI152
aI24
aI31
aI20
aI212
aI26
aI181
aI6
aI210
aI244
aI241
aI8
aI212
aI26
aI31
aI20
aI135
aI251
aI241
aI8
aI31
aI20
aI0
aI0
aI181
aI6
aI121
aI4
aI212
aI26
aI75
aI249
aI106
aI13
aI138
aI33
aI0
aI0
aI46
aI11
aI121
aI4
aI31
aI20
aI60
aI2
aI212
aI26
aI181
aI6
aI152
aI24
aI92
aI22
aI106
aI13
aI46
aI11
aI46
aI11
aI121
aI4
aI135
aI251
aI60
aI2
aI227
aI17
aI92
aI22
aI31
aI20
aI46
aI11
aI31
aI20
aI31
aI20
aI31
aI20
aI241
aI8
aI181
aI6
aI75
aI249
aI60
aI2
aI196
aI253
aI46
aI11
aI150
aI242
aI75
aI249
aI254
aI217
aI210
aI244
aI135
aI251
aI44
aI229
aI44
aI229
aI44
aI229
aI210
aI244
aI239
aI226
aI225
aI235
aI104
aI231
aI75
aI249
aI210
aI244
aI15
aI247
aI193
aI215
aI15
aI247
aI210
aI244
aI0
aI0
aI196
aI253
aI150
aI242
aI15
aI247
aI104
aI231
aI44
aI229
aI239
aI226
aI210
aI244
aI12
aI209
aI104
aI231
aI29
aI238
aI179
aI224
aI44
aI229
aI104
aI231
aI12
aI209
aI118
aI222
aI27
aI200
aI254
aI217
aI193
aI215
aI237
aI188
aI12
aI209
aI222
aI197
aI118
aI222
aI58
aI220
aI12
aI209
aI193
aI215
aI133
aI213
aI148
aI204
aI179
aI224
aI133
aI213
aI27
aI200
aI133
aI213
aI87
aI202
aI254
aI217
aI164
aI233
aI12
aI209
aI44
aI229
aI133
aI213
aI193
aI215
aI118
aI222
aI181
aI6
aI183
aI44
aI2
aI38
aI229
aI55
aI169
aI53
aI19
aI67
aI140
aI71
aI171
aI91
aI4
aI76
aI186
aI82
aI111
aI89
aI96
aI98
aI36
aI96
aI111
aI89
aI157
aI100
aI50
aI87
aI36
aI96
aI231
aI93
aI96
aI98
aI65
aI78
aI142
aI109
aI82
aI107
aI36
aI96
aI82
aI107
aI4
aI76
aI246
aI84
aI200
aI73
aI108
aI51
aI183
aI44
aI108
aI51
aI167
aI15
aI123
aI42
aI135
aI251
aI167
aI15
aI121
aI4
aI92
aI22
aI138
aI33
aI77
aI31
aI48
aI49
aI63
aI40
aI140
aI71
aI34
aI58
aI140
aI71
aI140
aI71
aI231
aI93
aI154
aI62
aI125
aI80
aI125
aI80
aI125
aI80
aI140
aI71
aI79
aI69
aI48
aI49
aI186
aI82
aI154
aI62
aI140
aI71
aI19
aI67
aI94
aI60
aI19
aI67
aI215
aI64
aI198
aI35
aI17
aI29
aI46
aI11
aI106
aI13
aI241
aI8
aI150
aI242
aI106
aI13
aI227
aI17
aI152
aI24
aI108
aI51
aI198
aI35
aI198
aI35
aI48
aI49
aI183
aI44
aI169
aI53
aI198
aI35
aI123
aI42
aI34
aI58
aI48
aI49
aI215
aI64
aI123
aI42
aI2
aI38
aI229
aI55
aI94
aI60
aI108
aI51
aI50
aI87
aI183
aI44
aI34
aI58
aI183
aI44
aI2
aI38
aI108
aI51
aI183
aI44
aI212
aI26
aI92
aI22
aI198
aI35
aI152
aI24
aI210
aI244
aI179
aI224
aI210
aI244
aI196
aI253
aI135
aI251
aI60
aI2
aI0
aI0
aI241
aI8
aI241
aI8
aI106
aI13
aI138
aI33
aI167
aI15
aI17
aI29
aI183
aI44
aI198
aI35
aI63
aI40
aI31
aI20
aI31
aI20
aI152
aI24
aI198
aI35
aI183
aI44
aI198
aI35
aI229
aI55
aI138
aI33
aI17
aI29
aI92
aI22
aI227
aI17
aI196
aI253
aI89
aI240
aI46
aI11
aI121
aI4
aI212
aI26
aI150
aI242
aI241
aI8
aI244
aI46
aI198
aI35
aI169
aI53
aI108
aI51
aI19
aI67
aI140
aI71
aI171
aI91
aI4
aI76
aI186
aI82
aI111
aI89
aI96
aI98
aI231
aI93
aI111
aI89
aI96
aI98
aI50
aI87
aI231
aI93
aI171
aI91
aI36
aI96
aI65
aI78
aI142
aI109
aI21
aI105
aI231
aI93
aI21
aI105
aI4
aI76
aI246
aI84
aI200
aI73
aI229
aI55
aI244
aI46
aI108
aI51
aI167
aI15
aI123
aI42
aI196
aI253
aI167
aI15
aI60
aI2
aI31
aI20
aI77
aI31
aI77
aI31
aI244
aI46
aI2
aI38
aI19
aI67
aI108
aI51
aI19
aI67
aI215
aI64
aI171
aI91
aI169
aI53
aI200
aI73
aI4
aI76
aI200
aI73
aI19
aI67
aI154
aI62
aI244
aI46
aI4
aI76
aI229
aI55
aI19
aI67
aI215
aI64
aI34
aI58
aI215
aI64
aI154
aI62
aI2
aI38
aI77
aI31
aI241
aI8
aI106
aI13
aI46
aI11
aI150
aI242
aI106
aI13
aI167
aI15
aI31
aI20
aI108
aI51
aI138
aI33
aI138
aI33
aI48
aI49
aI123
aI42
aI108
aI51
aI198
aI35
aI123
aI42
aI229
aI55
aI48
aI49
aI215
aI64
aI123
aI42
aI198
aI35
aI229
aI55
aI34
aI58
aI108
aI51
aI50
aI87
aI183
aI44
aI34
aI58
aI183
aI44
aI198
aI35
aI169
aI53
aI183
aI44
aI212
aI26
aI92
aI22
aI138
aI33
aI92
aI22
aI15
aI247
aI118
aI222
aI210
aI244
aI135
aI251
aI75
aI249
aI121
aI4
aI0
aI0
aI181
aI6
aI181
aI6
aI46
aI11
aI17
aI29
aI241
aI8
aI31
aI20
aI2
aI38
aI17
aI29
aI138
aI33
aI106
aI13
aI167
aI15
aI31
aI20
aI77
aI31
aI63
aI40
aI17
aI29
aI48
aI49
aI77
aI31
aI152
aI24
aI227
aI17
aI227
aI17
aI135
aI251
aI89
aI240
aI106
aI13
aI60
aI2
aI152
aI24
aI150
aI242
aI181
aI6
aI244
aI46
aI198
aI35
aI169
aI53
aI169
aI53
aI19
aI67
aI79
aI69
aI111
aI89
aI200
aI73
aI125
aI80
aI50
aI87
aI36
aI96
aI231
aI93
aI50
aI87
aI157
aI100
aI50
aI87
aI231
aI93
aI171
aI91
aI36
aI96
aI65
aI78
aI82
aI107
aI21
aI105
aI231
aI93
aI82
aI107
aI4
aI76
aI246
aI84
aI200
aI73
aI169
aI53
aI244
aI46
aI108
aI51
aI167
aI15
aI123
aI42
aI196
aI253
aI106
aI13
aI60
aI2
aI31
aI20
aI77
aI31
aI77
aI31
aI244
aI46
aI2
aI38
aI19
aI67
aI169
aI53
aI19
aI67
aI215
aI64
aI111
aI89
aI169
aI53
aI200
aI73
aI200
aI73
aI140
aI71
aI215
aI64
aI94
aI60
aI244
aI46
aI65
aI78
aI229
aI55
aI19
aI67
aI215
aI64
aI229
aI55
aI215
aI64
aI154
aI62
aI63
aI40
aI77
aI31
aI241
aI8
aI106
aI13
aI46
aI11
aI150
aI242
aI106
aI13
aI167
aI15
aI92
aI22
aI48
aI49
aI198
aI35
aI198
aI35
aI244
aI46
aI123
aI42
aI108
aI51
aI198
aI35
aI123
aI42
aI34
aI58
aI108
aI51
aI154
aI62
aI123
aI42
aI198
aI35
aI169
aI53
aI94
aI60
aI108
aI51
aI50
aI87
aI123
aI42
aI229
aI55
aI183
aI44
aI138
aI33
aI169
aI53
aI244
aI46
aI212
aI26
aI31
aI20
aI138
aI33
aI92
aI22
aI15
aI247
aI239
aI226
aI150
aI242
aI135
aI251
aI75
aI249
aI60
aI2
aI0
aI0
aI181
aI6
aI121
aI4
aI241
aI8
aI77
aI31
aI46
aI11
aI31
aI20
aI2
aI38
aI212
aI26
aI77
aI31
aI106
aI13
aI106
aI13
aI227
aI17
aI77
aI31
aI2
aI38
aI17
aI29
aI48
aI49
aI212
aI26
aI152
aI24
aI227
aI17
aI227
aI17
aI196
aI253
aI150
aI242
aI106
aI13
aI0
aI0
aI152
aI24
aI150
aI242
aI241
aI8
aI244
aI46
aI2
aI38
aI169
aI53
aI169
aI53
aI19
aI67
aI200
aI73
aI111
aI89
aI200
aI73
aI186
aI82
aI50
aI87
aI36
aI96
aI231
aI93
aI246
aI84
aI96
aI98
aI50
aI87
aI36
aI96
aI171
aI91
aI36
aI96
aI4
aI76
aI82
aI107
aI21
aI105
aI171
aI91
aI21
aI105
aI4
aI76
aI246
aI84
aI200
aI73
aI169
aI53
aI244
aI46
aI169
aI53
aI167
aI15
aI183
aI44
aI196
aI253
aI106
aI13
aI60
aI2
aI31
aI20
aI77
aI31
aI17
aI29
aI244
aI46
aI198
aI35
aI19
aI67
aI108
aI51
aI215
aI64
aI215
aI64
aI171
aI91
aI169
aI53
aI140
aI71
aI200
aI73
aI200
aI73
aI215
aI64
aI154
aI62
aI244
aI46
aI65
aI78
aI229
aI55
aI19
aI67
aI215
aI64
aI34
aI58
aI154
aI62
aI154
aI62
aI2
aI38
aI77
aI31
aI241
aI8
aI106
aI13
aI46
aI11
aI210
aI244
aI106
aI13
aI167
aI15
aI92
aI22
aI48
aI49
aI198
aI35
aI138
aI33
aI48
aI49
aI123
aI42
aI108
aI51
aI198
aI35
aI123
aI42
aI229
aI55
aI244
aI46
aI154
aI62
aI63
aI40
aI198
aI35
aI229
aI55
aI34
aI58
aI108
aI51
aI50
aI87
aI123
aI42
aI34
aI58
aI183
aI44
aI198
aI35
aI108
aI51
aI183
aI44
aI212
aI26
aI92
aI22
aI138
aI33
aI92
aI22
aI15
aI247
aI239
aI226
aI150
aI242
aI196
aI253
aI135
aI251
aI60
aI2
aI196
aI253
aI181
aI6
aI181
aI6
aI46
aI11
aI17
aI29
aI46
aI11
aI31
aI20
aI2
aI38
aI212
aI26
aI77
aI31
aI106
aI13
aI106
aI13
aI227
aI17
aI17
aI29
aI63
aI40
aI17
aI29
aI244
aI46
aI17
aI29
aI152
aI24
aI227
aI17
aI227
aI17
aI135
aI251
aI150
aI242
aI106
aI13
aI60
aI2
aI152
aI24
aI150
aI242
aI110
aI129
aI15
aI130
aI251
aI129
aI179
aI129
aI251
aI129
aI34
aI129
aI162
aI130
aI94
aI129
aI92
aI130
aI195
aI129
aI113
aI129
aI177
aI130
aI178
aI129
aI141
aI130
aI120
aI130
aI251
aI130
aI103
aI130
aI130
aI129
aI27
aI131
aI4
aI129
aI48
aI129
aI35
aI130
aI220
aI128
aI137
aI129
aI54
aI130
aI171
aI130
aI196
aI129
aI113
aI130
aI26
aI132
aI223
aI130
aI174
aI129
aI141
aI130
aI90
aI131
aI200
aI130
aI30
aI130
aI217
aI130
aI146
aI130
aI96
aI130
aI74
aI130
aI231
aI130
aI74
aI131
aI231
aI129
aI87
aI130
aI225
aI131
aI230
aI130
aI146
aI130
aI232
aI131
aI219
aI129
aI237
aI130
aI70
aI129
aI69
aI130
aI147
aI130
aI121
aI130
aI21
aI130
aI120
aI131
aI147
aI131
aI92
aI130
aI168
aI130
aI56
aI130
aI53
aI131
aI63
aI130
aI218
aI129
aI1
aI130
aI44
aI130
aI235
aI130
aI103
aI130
aI48
aI132
aI98
aI131
aI211
aI130
aI201
aI130
aI156
aI132
aI31
aI131
aI123
aI132
aI228
aI131
aI172
aI131
aI225
aI131
aI246
aI131
aI215
aI131
aI195
aI131
aI87
aI132
aI38
aI132
aI183
aI132
aI73
aI131
aI173
aI130
aI9
aI131
aI250
aI131
aI206
aI130
aI49
aI131
aI163
aI130
aI21
aI131
aI25
aI131
aI212
aI131
aI189
aI131
aI185
aI131
aI70
aI132
aI14
aI132
aI200
aI133
aI29
aI132
aI57
aI131
aI101
aI131
aI230
aI131
aI226
aI131
aI196
aI132
aI178
aI132
aI99
aI134
aI251
aI131
aI194
aI132
aI12
aI134
aI177
aI133
aI102
aI134
aI66
aI132
aI82
aI132
aI4
aI133
aI98
aI132
aI193
aI132
aI152
aI132
aI217
aI132
aI58
aI134
aI8
aI133
aI166
aI132
aI77
aI132
aI102
aI133
aI32
aI132
aI15
aI133
aI122
aI132
aI199
aI132
aI117
aI133
aI49
aI132
aI107
aI129
aI27
aI130
aI231
aI129
aI166
aI129
aI252
aI129
aI49
aI129
aI176
aI130
aI107
aI129
aI118
aI130
aI219
aI129
aI151
aI129
aI201
aI130
aI202
aI129
aI164
aI130
aI144
aI130
aI5
aI131
aI127
aI130
aI154
aI129
aI51
aI131
aI29
aI129
aI59
aI129
aI61
aI130
aI4
aI129
aI151
aI129
aI70
aI130
aI187
aI130
aI200
aI129
aI118
aI130
aI0
aI132
aI193
aI130
aI137
aI129
aI136
aI130
aI99
aI131
aI201
aI130
aI32
aI130
aI220
aI130
aI135
aI130
aI99
aI130
aI65
aI130
aI208
aI130
aI78
aI131
aI222
aI129
aI91
aI130
aI229
aI131
aI234
aI130
aI137
aI130
aI223
aI131
aI210
aI129
aI229
aI130
aI61
aI129
aI60
aI130
aI138
aI130
aI112
aI130
aI11
aI130
aI111
aI131
aI151
aI131
aI82
aI130
aI158
aI130
aI46
aI130
aI56
aI131
aI66
aI130
aI236
aI129
aI5
aI130
aI40
aI130
aI232
aI130
aI116
aI130
aI36
aI132
aI89
aI131
aI204
aI130
aI207
aI130
aI150
aI132
aI38
aI131
aI144
aI132
aI235
aI131
aI179
aI131
aI244
aI131
aI10
aI132
aI222
aI131
aI216
aI131
aI107
aI132
aI45
aI132
aI190
aI132
aI92
aI131
aI180
aI130
aI16
aI131
aI15
aI132
aI213
aI130
aI70
aI131
aI171
aI130
aI15
aI131
aI18
aI131
aI192
aI131
aI167
aI131
aI176
aI131
aI59
aI132
aI253
aI131
aI185
aI133
aI26
aI132
aI44
aI131
aI116
aI131
aI219
aI131
aI227
aI131
aI197
aI132
aI166
aI132
aI88
aI134
aI241
aI131
aI184
aI132
aI2
aI134
aI168
aI133
aI93
aI134
aI45
aI132
aI74
aI132
aI252
aI132
aI90
aI132
aI171
aI132
aI143
aI132
aI194
aI132
aI36
aI134
aI241
aI132
aI169
aI132
aI79
aI132
aI103
aI133
aI20
aI132
aI2
aI133
aI123
aI132
aI201
aI132
aI104
aI133
aI46
aI132
aI94
aI129
aI14
aI130
aI233
aI129
aI154
aI129
aI254
aI129
aI52
aI129
aI179
aI130
aI123
aI129
aI120
aI130
aI235
aI129
aI154
aI129
aI203
aI130
aI205
aI129
aI166
aI130
aI146
aI130
aI21
aI131
aI129
aI130
aI157
aI129
aI67
aI131
aI32
aI129
aI62
aI129
aI64
aI130
aI249
aI128
aI167
aI129
aI85
aI130
aI203
aI130
aI202
aI129
aI133
aI130
aI16
aI132
aI195
aI130
aI140
aI129
aI111
aI130
aI75
aI131
aI202
aI130
aI20
aI130
aI222
aI130
aI151
aI130
aI101
aI130
aI67
aI130
aI224
aI130
aI80
aI131
aI224
aI129
aI93
aI130
aI231
aI131
aI236
aI130
aI139
aI130
aI212
aI131
aI225
aI129
aI231
aI130
aI63
aI129
aI62
aI130
aI140
aI130
aI128
aI130
aI27
aI130
aI113
aI131
aI153
aI131
aI84
aI130
aI161
aI130
aI62
aI130
aI59
aI131
aI68
aI130
aI225
aI129
aI7
aI130
aI28
aI130
aI209
aI130
aI90
aI130
aI26
aI132
aI78
aI131
aI206
aI130
aI209
aI130
aI166
aI132
aI40
aI131
aI132
aI132
aI237
aI131
aI195
aI131
aI246
aI131
aI12
aI132
aI224
aI131
aI231
aI131
aI109
aI132
aI47
aI132
aI192
aI132
aI81
aI131
aI182
aI130
aI18
aI131
aI4
aI132
aI215
aI130
aI72
aI131
aI173
aI130
aI17
aI131
aI34
aI131
aI206
aI131
aI169
aI131
aI178
aI131
aI61
aI132
aI254
aI131
aI175
aI133
aI14
aI132
aI46
aI131
aI105
aI131
aI234
aI131
aI230
aI131
aI186
aI132
aI168
aI132
aI77
aI134
aI243
aI131
aI186
aI132
aI4
aI134
aI170
aI133
aI95
aI134
aI47
aI132
aI63
aI132
aI12
aI133
aI92
aI132
aI173
aI132
aI159
aI132
aI196
aI132
aI38
aI134
aI1
aI133
aI159
aI132
aI68
aI132
aI92
aI133
aI22
aI132
aI18
aI133
aI125
aI132
aI203
aI132
aI106
aI133
aI35
aI132
aI83
aI129
aI7
aI130
aI238
aI129
aI172
aI129
aI1
aI130
aI54
aI129
aI195
aI130
aI112
aI129
aI135
aI130
aI223
aI129
aI156
aI129
aI192
aI130
aI206
aI129
aI168
aI130
aI161
aI130
aI23
aI131
aI131
aI130
aI145
aI129
aI69
aI131
aI33
aI129
aI64
aI129
aI65
aI130
aI251
aI128
aI169
aI129
aI87
aI130
aI205
aI130
aI218
aI129
aI136
aI130
aI19
aI132
aI199
aI130
aI145
aI129
aI101
aI130
aI78
aI131
aI181
aI130
aI24
aI130
aI212
aI130
aI140
aI130
aI104
aI130
aI69
aI130
aI226
aI130
aI82
aI131
aI212
aI129
aI95
aI130
aI233
aI131
aI237
aI130
aI141
aI130
aI227
aI131
aI227
aI129
aI245
aI130
aI64
aI129
aI50
aI130
aI155
aI130
aI129
aI130
aI28
aI130
aI128
aI131
aI155
aI131
aI86
aI130
aI149
aI130
aI51
aI130
aI61
aI131
aI71
aI130
aI228
aI129
aI11
aI130
aI19
aI130
aI199
aI130
aI95
aI130
aI30
aI132
aI81
aI131
aI208
aI130
aI198
aI130
aI154
aI132
aI42
aI131
aI134
aI132
aI239
aI131
aI196
aI131
aI248
aI131
aI13
aI132
aI225
aI131
aI219
aI131
aI111
aI132
aI35
aI132
aI194
aI132
aI83
aI131
aI197
aI130
aI32
aI131
aI5
aI132
aI217
aI130
aI60
aI131
aI175
aI130
aI19
aI131
aI36
aI131
aI209
aI131
aI185
aI131
aI193
aI131
aI64
aI132
aI246
aI131
aI165
aI133
aI249
aI131
aI50
aI131
aI95
aI131
aI237
aI131
aI232
aI131
aI202
aI132
aI170
aI132
aI92
aI134
aI2
aI132
aI188
aI132
aI6
aI134
aI172
aI133
aI97
aI134
aI48
aI132
aI64
aI132
aI0
aI133
aI107
aI132
aI162
aI132
aI147
aI132
aI184
aI132
aI40
aI134
aI245
aI132
aI160
aI132
aI83
aI132
aI94
aI133
aI24
aI132
aI7
aI133
aI128
aI132
aI207
aI132
aI110
aI133
aI24
aI132
aI38
aI130
aI155
aI129
aI111
aI129
aI245
aI128
aI75
aI129
aI74
aI129
aI101
aI128
aI57
aI128
aI253
aI127
aI177
aI128
aI51
aI128
aI23
aI128
aI173
aI128
aI130
aI128
aI149
aI127
aI53
aI128
aI16
aI127
aI66
aI128
aI253
aI127
aI91
aI128
aI146
aI127
aI149
aI127
aI124
aI128
aI135
aI127
aI169
aI128
aI242
aI127
aI159
aI129
aI183
aI129
aI255
aI128
aI136
aI128
aI87
aI130
aI232
aI128
aI224
aI129
aI213
aI130
aI146
aI130
aI246
aI130
aI196
aI130
aI7
aI130
aI112
aI129
aI40
aI129
aI123
aI128
aI194
aI129
aI227
aI129
aI254
aI128
aI72
aI128
aI60
aI129
aI25
aI130
aI145
aI128
aI154
aI129
aI63
aI129
aI62
aI128
aI115
aI129
aI161
aI129
aI245
aI128
aI74
aI129
aI141
aI128
aI0
aI129
aI120
aI129
aI206
aI128
aI22
aI130
aI226
aI129
aI195
aI130
aI144
aI130
aI99
aI130
aI52
aI132
aI6
aI132
aI211
aI130
aI6
aI131
aI22
aI130
aI124
aI130
aI162
aI130
aI219
aI130
aI135
aI130
aI61
aI130
aI202
aI129
aI80
aI130
aI248
aI128
aI162
aI130
aI189
aI128
aI16
aI129
aI13
aI130
aI13
aI129
aI204
aI129
aI172
aI129
aI158
aI129
aI137
aI130
aI102
aI129
aI26
aI130
aI41
aI130
aI174
aI129
aI106
aI130
aI209
aI130
aI5
aI131
aI188
aI129
aI120
aI130
aI65
aI131
aI158
aI133
aI194
aI131
aI44
aI132
aI174
aI131
aI139
aI131
aI141
aI132
aI83
aI131
aI108
aI132
aI168
aI131
aI251
aI130
aI201
aI130
aI135
aI131
aI160
aI130
aI15
aI131
aI53
aI129
aI93
aI131
aI194
aI130
aI12
aI131
aI99
aI130
aI146
aI130
aI12
aI130
aI230
aI129
aI222
aI129
aI60
aI130
aI174
aI131
aI72
aI131
aI159
aI131
aI159
aI131
aI162
aI131
aI175
aI131
aI213
aI130
aI251
aI131
aI25
aI130
aI146
aI129
aI127
aI129
aI4
aI129
aI90
aI129
aI75
aI129
aI104
aI128
aI59
aI128
aI254
aI127
aI178
aI128
aI51
aI128
aI22
aI128
aI185
aI128
aI130
aI128
aI161
aI127
aI52
aI128
aI29
aI127
aI80
aI128
aI9
aI128
aI92
aI128
aI146
aI127
aI162
aI127
aI138
aI128
aI149
aI127
aI171
aI128
aI244
aI127
aI160
aI129
aI157
aI129
aI242
aI128
aI136
aI128
aI90
aI130
aI231
aI128
aI212
aI129
aI219
aI130
aI165
aI130
aI7
aI131
aI211
aI130
aI9
aI130
aI127
aI129
aI53
aI129
aI148
aI128
aI232
aI129
aI249
aI129
aI33
aI129
aI80
aI128
aI107
aI129
aI59
aI130
aI165
aI128
aI187
aI129
aI85
aI129
aI98
aI128
aI124
aI129
aI196
aI129
aI26
aI129
aI99
aI129
aI153
aI128
aI15
aI129
aI136
aI129
aI222
aI128
aI12
aI130
aI215
aI129
aI212
aI130
aI148
aI130
aI84
aI130
aI54
aI132
aI13
aI132
aI227
aI130
aI33
aI131
aI20
aI130
aI136
aI130
aI174
aI130
aI218
aI130
aI145
aI130
aI72
aI130
aI199
aI129
aI77
aI130
aI2
aI129
aI160
aI130
aI186
aI128
aI14
aI129
aI24
aI130
aI11
aI129
aI216
aI129
aI170
aI129
aI156
aI129
aI134
aI130
aI100
aI129
aI24
aI130
aI54
aI130
aI160
aI129
aI105
aI130
aI208
aI130
aI4
aI131
aI204
aI129
aI139
aI130
aI49
aI131
aI171
aI133
aI200
aI131
aI59
aI132
aI187
aI131
aI123
aI131
aI139
aI132
aI94
aI131
aI117
aI132
aI177
aI131
aI17
aI131
aI234
aI130
aI179
aI131
aI190
aI130
aI46
aI131
aI84
aI129
aI124
aI131
aI212
aI130
aI30
aI131
aI117
aI130
aI164
aI130
aI45
aI130
aI9
aI130
aI230
aI129
aI81
aI130
aI199
aI131
aI70
aI131
aI171
aI131
aI158
aI131
aI147
aI131
aI188
aI131
aI232
aI130
aI249
aI131
aI37
aI130
aI144
aI129
aI125
aI129
aI3
aI129
aI75
aI129
aI74
aI129
aI116
aI128
aI71
aI128
aI10
aI128
aI190
aI128
aI63
aI128
aI33
aI128
aI184
aI128
aI142
aI128
aI147
aI127
aI51
aI128
aI28
aI127
aI79
aI128
aI8
aI128
aI91
aI128
aI159
aI127
aI161
aI127
aI137
aI128
aI134
aI127
aI170
aI128
aI243
aI127
aI159
aI129
aI169
aI129
aI241
aI128
aI135
aI128
aI89
aI130
aI228
aI128
aI210
aI129
aI230
aI130
aI163
aI130
aI6
aI131
aI210
aI130
aI7
aI130
aI126
aI129
aI52
aI129
aI147
aI128
aI217
aI129
aI248
aI129
aI32
aI129
aI92
aI128
aI106
aI129
aI58
aI130
aI178
aI128
aI200
aI129
aI98
aI129
aI109
aI128
aI123
aI129
aI182
aI129
aI25
aI129
aI98
aI129
aI152
aI128
aI27
aI129
aI135
aI129
aI221
aI128
aI253
aI129
aI214
aI129
aI211
aI130
aI147
aI130
aI82
aI130
aI51
aI132
aI10
aI132
aI225
aI130
aI18
aI131
aI32
aI130
aI121
aI130
aI159
aI130
aI230
aI130
aI144
aI130
aI71
aI130
aI198
aI129
aI76
aI130
aI244
aI128
aI145
aI130
aI199
aI128
aI12
aI129
aI23
aI130
aI23
aI129
aI201
aI129
aI169
aI129
aI155
aI129
aI146
aI130
aI113
aI129
aI23
aI130
aI66
aI130
aI159
aI129
aI90
aI130
aI207
aI130
aI17
aI131
aI203
aI129
aI138
aI130
aI48
aI131
aI141
aI133
aI210
aI131
aI56
aI132
aI185
aI131
aI135
aI131
aI137
aI132
aI92
aI131
aI129
aI132
aI189
aI131
aI2
aI131
aI219
aI130
aI178
aI131
aI189
aI130
aI59
aI131
aI96
aI129
aI123
aI131
aI224
aI130
aI43
aI131
aI116
aI130
aI177
aI130
aI44
aI130
aI7
aI130
aI0
aI130
aI80
aI130
aI197
aI131
aI69
aI131
aI156
aI131
aI143
aI131
aI145
aI131
aI200
aI131
aI230
aI130
aI249
aI131
aI24
aI130
aI139
aI129
aI107
aI129
aI255
aI128
aI72
aI129
aI72
aI129
aI87
aI128
aI70
aI128
aI8
aI128
aI175
aI128
aI62
aI128
aI32
aI128
aI183
aI128
aI155
aI128
aI159
aI127
aI50
aI128
aI14
aI127
aI78
aI128
aI7
aI128
aI103
aI128
aI158
aI127
aI160
aI127
aI149
aI128
aI147
aI127
aI169
aI128
aI242
aI127
aI157
aI129
aI167
aI129
aI238
aI128
aI118
aI128
aI84
aI130
aI213
aI128
aI210
aI129
aI226
aI130
aI159
aI130
aI3
aI131
aI208
aI130
aI19
aI130
aI124
aI129
aI64
aI129
aI146
aI128
aI230
aI129
aI5
aI130
aI31
aI129
aI78
aI128
aI105
aI129
aI71
aI130
aI177
aI128
aI186
aI129
aI97
aI129
aI96
aI128
aI122
aI129
aI181
aI129
aI24
aI129
aI97
aI129
aI151
aI128
aI13
aI129
aI147
aI129
aI220
aI128
aI9
aI130
aI212
aI129
aI208
aI130
aI143
aI130
aI79
aI130
aI38
aI132
aI6
aI132
aI221
aI130
aI15
aI131
aI30
aI130
aI119
aI130
aI171
aI130
aI215
aI130
aI143
aI130
aI70
aI130
aI197
aI129
aI75
aI130
aI0
aI129
aI171
aI130
aI198
aI128
aI25
aI129
aI22
aI130
aI9
aI129
aI214
aI129
aI168
aI129
aI154
aI129
aI145
aI130
aI98
aI129
aI22
aI130
aI51
aI130
aI171
aI129
aI102
aI130
aI205
aI130
aI1
aI131
aI200
aI129
aI134
aI130
aI46
aI131
aI142
aI133
aI205
aI131
aI38
aI132
aI168
aI131
aI132
aI131
aI148
aI132
aI90
aI131
aI114
aI132
aI174
aI131
aI14
aI131
aI218
aI130
aI177
aI131
aI188
aI130
aI58
aI131
aI95
aI129
aI122
aI131
aI223
aI130
aI42
aI131
aI129
aI130
aI162
aI130
aI43
aI130
aI20
aI130
aI241
aI129
aI79
aI130
aI196
aI131
aI67
aI131
aI168
aI131
aI141
aI131
aI143
aI131
aI183
aI131
aI226
aI130
aI246
aI131
aI174
aI12
aI140
aI33
aI1
aI37
aI33
aI54
aI5
aI44
aI161
aI60
aI217
aI68
aI25
aI60
aI17
aI70
aI21
aI67
aI82
aI85
aI190
aI71
aI219
aI86
aI55
aI105
aI215
aI102
aI214
aI85
aI39
aI95
aI9
aI86
aI249
aI91
aI176
aI92
aI107
aI77
aI54
aI101
aI29
aI80
aI202
aI78
aI146
aI80
aI196
aI66
aI174
aI48
aI110
aI50
aI205
aI38
aI33
aI25
aI31
aI26
aI0
aI0
aI176
aI17
aI96
aI35
aI194
aI52
aI155
aI65
aI88
aI61
aI203
aI85
aI66
aI78
aI96
aI74
aI89
aI88
aI2
aI103
aI93
aI94
aI189
aI109
aI77
aI104
aI135
aI97
aI251
aI106
aI209
aI100
aI148
aI111
aI113
aI108
aI185
aI106
aI116
aI110
aI83
aI112
aI65
aI90
aI14
aI100
aI135
aI84
aI132
aI81
aI236
aI64
aI135
aI84
aI111
aI77
aI50
aI55
aI127
aI51
aI110
aI47
aI105
aI13
aI94
aI46
aI72
aI51
aI146
aI64
aI15
aI75
aI23
aI75
aI230
aI85
aI95
aI99
aI74
aI104
aI5
aI105
aI246
aI102
aI160
aI111
aI91
aI122
aI226
aI127
aI101
aI124
aI141
aI131
aI93
aI130
aI240
aI126
aI32
aI121
aI24
aI118
aI24
aI118
aI128
aI117
aI71
aI105
aI100
aI110
aI84
aI113
aI88
aI67
aI164
aI95
aI184
aI92
aI217
aI81
aI163
aI65
aI253
aI52
aI189
aI38
aI198
aI32
aI178
aI25
aI27
aI62
aI118
aI63
aI22
aI74
aI57
aI87
aI128
aI91
aI185
aI96
aI52
aI109
aI80
aI119
aI70
aI114
aI60
aI119
aI84
aI139
aI70
aI140
aI234
aI127
aI103
aI129
aI110
aI138
aI134
aI138
aI167
aI146
aI183
aI127
aI42
aI136
aI119
aI132
aI254
aI134
aI188
aI128
aI36
aI128
aI25
aI112
aI39
aI98
aI104
aI87
aI76
aI80
aI184
aI79
aI32
aI73
aI178
aI45
aI148
aI46
aI88
aI54
aI232
aI77
aI43
aI82
aI121
aI101
aI243
aI96
aI228
aI113
aI241
aI127
aI233
aI117
aI64
aI122
aI118
aI128
aI208
aI138
aI245
aI127
aI180
aI144
aI88
aI162
aI75
aI157
aI50
aI146
aI35
aI150
aI237
aI140
aI3
aI149
aI172
aI150
aI44
aI138
aI203
aI157
aI198
aI130
aI92
aI136
aI82
aI134
aI57
aI123
aI165
aI102
aI158
aI100
aI169
aI96
aI175
aI78
aI110
aI76
aI16
aI46
aI210
aI49
aI64
aI73
aI236
aI90
aI33
aI103
aI249
aI104
aI221
aI126
aI41
aI119
aI138
aI119
aI2
aI132
aI196
aI148
aI61
aI136
aI158
aI152
aI249
aI146
aI222
aI143
aI167
aI153
aI159
aI143
aI207
aI154
aI33
aI155
aI238
aI150
aI18
aI155
aI142
aI155
aI75
aI138
aI89
aI143
aI13
aI125
aI62
aI127
aI136
aI111
aI114
aI128
aI49
aI119
aI232
aI93
aI39
aI88
aI151
aI87
aI97
aI49
aI151
aI74
aI73
aI81
aI21
aI99
aI83
aI112
aI38
aI110
aI231
aI122
aI121
aI137
aI132
aI146
aI85
aI140
aI69
aI146
aI93
aI153
aI49
aI165
aI151
aI169
aI119
aI165
aI227
aI167
aI216
aI171
aI120
aI169
aI91
aI161
aI154
aI161
aI208
aI158
aI245
aI156
aI70
aI140
aI192
aI151
aI112
aI146
aI91
aI125
aI65
aI136
aI51
aI134
aI63
aI118
aI123
aI103
aI78
aI88
aI31
aI78
aI175
aI68
aI63
aI53
aI187
aI95
aI48
aI96
aI50
aI104
aI69
aI123
aI173
aI125
aI171
aI130
aI136
aI146
aI120
aI156
aI183
aI150
aI59
aI157
aI69
aI178
aI196
aI177
aI97
aI166
aI237
aI166
aI72
aI174
aI39
aI176
aI71
aI180
aI166
aI165
aI117
aI173
aI128
aI172
aI107
aI171
aI37
aI168
aI227
aI157
aI151
aI149
aI94
aI134
aI91
aI125
aI67
aI118
aI223
aI112
aI164
aI108
aI113
aI82
aI251
aI80
aI92
aI84
aI136
aI104
aI74
aI111
aI35
aI137
aI164
aI131
aI201
aI145
aI210
aI159
aI202
aI146
aI148
aI160
aI138
aI158
aI76
aI174
aI170
aI165
aI192
aI174
aI252
aI201
aI237
aI195
aI109
aI176
aI177
aI187
aI89
aI172
aI223
aI180
aI164
aI183
aI127
aI171
aI61
aI191
aI80
aI168
aI183
aI166
aI6
aI171
aI136
aI153
aI161
aI138
aI213
aI136
aI61
aI123
aI115
aI113
aI48
aI109
aI85
aI78
aI5
aI76
aI249
aI94
aI109
aI121
aI224
aI132
aI243
aI128
aI28
aI157
aI9
aI148
aI254
aI141
aI73
aI159
aI52
aI180
aI165
aI164
aI155
aI182
aI131
aI175
aI16
aI173
aI150
aI184
aI107
aI174
aI8
aI183
aI145
aI186
aI240
aI181
aI192
aI187
aI77
aI185
aI200
aI164
aI225
aI175
aI15
aI159
aI155
aI159
aI151
aI139
aI188
aI154
aI37
aI145
aI152
aI124
aI69
aI120
aI56
aI119
aI102
aI82
aI164
aI95
aI103
aI112
aI167
aI120
aI8
aI137
aI3
aI136
aI9
aI148
aI8
aI160
aI173
aI171
aI46
aI169
aI14
aI171
aI224
aI174
aI161
aI193
aI118
aI196
aI210
aI192
aI140
aI192
aI89
aI198
aI27
aI195
aI113
aI189
aI67
aI190
aI238
aI186
aI169
aI184
aI145
aI170
aI71
aI183
aI187
aI173
aI245
aI153
aI99
aI164
aI171
aI156
aI252
aI146
aI218
aI130
aI132
aI114
aI128
aI104
aI1
aI76
aI1
aI73
aI206
aI114
aI215
aI118
aI82
aI127
aI35
aI143
aI111
aI145
aI186
aI152
aI120
aI169
aI169
aI180
aI35
aI173
aI115
aI181
aI82
aI202
aI147
aI201
aI175
aI189
aI49
aI191
aI199
aI199
aI189
aI194
aI35
aI205
aI78
aI189
aI43
aI192
aI242
aI196
aI11
aI195
aI237
aI185
aI98
aI180
aI23
aI176
aI136
aI159
aI107
aI148
aI62
aI140
aI157
aI135
aI158
aI129
aI67
aI105
aI26
aI107
aI126
aI109
aI20
aI131
aI43
aI137
aI103
aI161
aI125
aI157
aI115
aI171
aI231
aI183
aI161
aI174
aI174
aI185
aI42
aI188
aI93
aI198
aI18
aI191
aI251
aI203
aI168
aI225
aI17
aI219
aI58
aI202
aI40
aI213
aI78
aI202
aI219
aI206
aI138
aI213
aI206
aI195
aI163
aI218
aI157
aI193
aI240
aI191
aI154
aI197
aI137
aI180
aI178
aI162
aI124
aI159
aI113
aI150
aI129
aI137
aI143
aI133
aI23
aI104
aI160
aI75
aI102
aI118
aI157
aI141
aI5
aI157
aI197
aI152
aI9
aI177
aI119
aI168
aI58
aI166
aI167
aI182
aI97
aI205
aI207
aI186
aI31
aI205
aI33
aI200
aI137
aI193
aI168
aI202
aI245
aI192
aI7
aI208
aI19
aI211
aI222
aI208
aI137
aI209
aI240
aI207
aI64
aI190
aI103
aI194
aI126
aI180
aI175
aI179
aI117
aI166
aI180
aI177
aI164
aI170
aI133
aI144
aI21
aI145
aI248
aI139
aI225
aI94
aI160
aI82
aI186
aI126
aI42
aI143
aI175
aI156
aI234
aI157
aI198
aI169
aI158
aI184
aI159
aI188
aI157
aI187
aI12
aI189
aI202
aI198
aI211
aI209
aI236
aI217
aI230
aI212
aI203
aI215
aI129
aI215
aI226
aI215
aI24
aI206
aI165
aI206
aI70
aI202
aI188
aI203
aI175
aI192
aI151
aI195
aI192
aI196
aI31
aI169
aI167
aI182
aI225
aI175
aI48
aI164
aI104
aI149
aI224
aI135
aI68
aI122
aI242
aI108
aI7
aI45
aI86
aI131
aI10
aI139
aI251
aI148
aI192
aI157
aI51
aI163
aI236
aI165
aI251
aI184
aI192
aI193
aI168
aI189
aI96
aI194
aI191
aI215
aI203
aI212
aI135
aI201
aI112
aI208
aI101
aI215
aI58
aI211
aI85
aI218
aI244
aI201
aI50
aI211
aI85
aI214
aI70
aI208
aI114
aI206
aI63
aI199
aI69
aI188
aI120
aI175
aI61
aI165
aI64
aI158
aI6
aI155
aI201
aI145
aI61
aI123
aI240
aI119
aI131
aI22
aI142
aI41
aI28
aI50
aI47
aI59
aI150
aI57
aI123
aI93
aI59
aI82
aI84
aI90
aI229
aI91
aI91
aI102
aI120
aI104
aI94
aI118
aI7
aI104
aI2
aI113
aI166
aI126
aI126
aI115
aI17
aI112
aI228
aI126
aI28
aI131
aI41
aI122
aI65
aI113
aI181
aI116
aI19
aI107
aI112
aI97
aI62
aI98
aI138
aI86
aI254
aI92
aI106
aI66
aI78
aI59
aI59
aI56
aI28
aI56
aI194
aI45
aI116
aI39
aI62
aI52
aI169
aI70
aI121
aI82
aI0
aI95
aI9
aI86
aI87
aI109
aI112
aI107
aI243
aI115
aI64
aI135
aI170
aI123
aI245
aI146
aI81
aI146
aI213
aI162
aI47
aI150
aI109
aI137
aI200
aI138
aI107
aI129
aI163
aI140
aI14
aI136
aI98
aI141
aI239
aI125
aI11
aI120
aI216
aI112
aI136
aI120
aI187
aI108
aI25
aI109
aI82
aI92
aI205
aI58
aI15
aI88
aI198
aI68
aI208
aI47
aI1
aI50
aI77
aI71
aI15
aI65
aI254
aI89
aI91
aI99
aI83
aI125
aI5
aI105
aI143
aI123
aI255
aI122
aI60
aI125
aI28
aI147
aI46
aI149
aI12
aI147
aI29
aI145
aI30
aI149
aI249
aI166
aI197
aI155
aI195
aI166
aI78
aI163
aI72
aI148
aI143
aI149
aI161
aI135
aI32
aI147
aI181
aI135
aI174
aI129
aI151
aI123
aI185
aI106
aI227
aI92
aI229
aI94
aI251
aI86
aI103
aI77
aI121
aI53
aI204
aI60
aI4
aI72
aI205
aI84
aI57
aI100
aI216
aI116
aI121
aI118
aI225
aI126
aI116
aI120
aI132
aI133
aI187
aI150
aI233
aI146
aI171
aI179
aI15
aI169
aI202
aI153
aI43
aI160
aI94
aI154
aI129
aI173
aI132
aI179
aI120
aI159
aI56
aI161
aI64
aI158
aI12
aI163
aI140
aI140
aI137
aI154
aI99
aI158
aI101
aI137
aI100
aI113
aI94
aI115
aI188
aI99
aI221
aI97
aI97
aI85
aI153
aI73
aI165
aI57
aI131
aI90
aI186
aI94
aI104
aI107
aI246
aI98
aI24
aI141
aI177
aI132
aI105
aI140
aI175
aI143
aI195
aI150
aI100
aI155
aI29
aI171
aI228
aI155
aI195
aI163
aI55
aI176
aI73
aI169
aI50
aI162
aI96
aI175
aI118
aI183
aI86
aI173
aI79
aI167
aI215
aI167
aI110
aI151
aI45
aI145
aI148
aI147
aI111
aI135
aI44
aI141
aI176
aI118
aI68
aI109
aI149
aI105
aI237
aI101
aI179
aI88
aI129
aI69
aI87
aI86
aI83
aI102
aI143
aI120
aI121
aI134
aI121
aI124
aI0
aI150
aI7
aI149
aI243
aI158
aI50
aI172
aI168
aI167
aI24
aI183
aI212
aI190
aI199
aI199
aI125
aI189
aI97
aI182
aI183
aI182
aI220
aI168
aI30
aI178
aI74
aI179
aI139
aI185
aI221
aI165
aI232
aI158
aI226
aI153
aI208
aI158
aI166
aI149
aI18
aI149
aI145
aI134
aI239
aI99
aI246
aI121
aI144
aI104
aI193
aI87
aI249
aI78
aI149
aI102
aI0
aI98
aI203
aI118
aI78
aI137
aI32
aI160
aI128
aI146
aI79
aI161
aI169
aI164
aI3
aI169
aI247
aI187
aI92
aI188
aI109
aI186
aI194
aI172
aI6
aI191
aI76
aI200
aI50
aI192
aI165
aI206
aI236
aI197
aI199
aI186
aI97
aI189
aI192
aI177
aI215
aI186
aI79
aI174
aI73
aI162
aI164
aI163
aI116
aI143
aI181
aI132
aI233
aI133
aI20
aI124
aI203
aI111
aI96
aI90
aI249
aI85
aI244
aI103
aI187
aI114
aI52
aI128
aI120
aI156
aI244
aI152
aI155
aI162
aI134
aI158
aI59
aI167
aI181
aI184
aI248
aI181
aI70
aI215
aI112
aI208
aI20
aI186
aI81
aI195
aI142
aI187
aI189
aI210
aI37
aI220
aI108
aI198
aI255
aI203
aI142
aI190
aI169
aI190
aI170
aI178
aI193
aI194
aI150
aI187
aI31
aI176
aI90
aI144
aI204
aI148
aI213
aI136
aI104
aI133
aI169
aI122
aI191
aI101
aI85
aI88
aI108
aI120
aI64
aI125
aI21
aI135
aI85
aI133
aI108
aI172
aI156
aI163
aI104
aI172
aI6
aI178
aI114
aI183
aI131
aI191
aI246
aI209
aI5
aI190
aI185
aI197
aI42
aI211
aI113
aI202
aI175
aI195
aI54
aI208
aI153
aI216
aI105
aI208
aI176
aI196
aI131
aI201
aI123
aI184
aI105
aI182
aI200
aI180
aI141
aI167
aI221
aI172
aI82
aI150
aI202
aI140
aI66
aI137
aI56
aI132
aI177
aI119
aI5
aI96
aI249
aI111
aI89
aI130
aI11
aI149
aI70
aI160
aI205
aI155
aI122
aI180
aI244
aI175
aI255
aI184
aI101
aI208
aI159
aI198
aI243
aI216
aI7
aI221
aI115
aI233
aI50
aI221
aI235
aI206
aI180
aI206
aI97
aI192
aI162
aI207
aI223
aI209
aI66
aI218
aI26
aI194
aI133
aI189
aI89
aI182
aI20
aI189
aI106
aI177
aI8
aI176
aI180
aI167
aI167
aI127
aI43
aI150
aI63
aI131
aI110
aI112
aI191
aI101
aI2
aI129
aI85
aI123
aI142
aI148
aI212
aI158
aI213
aI191
aI135
aI175
aI171
aI185
aI87
aI193
aI193
aI197
aI184
aI216
aI74
aI215
aI30
aI214
aI126
aI216
aI78
aI212
aI193
aI233
aI15
aI218
aI138
aI233
aI235
aI229
aI47
aI212
aI25
aI213
aI229
aI201
aI168
aI206
aI87
aI200
aI180
aI186
aI142
aI190
aI236
aI171
aI219
aI154
aI12
aI144
aI130
aI148
aI74
aI127
aI70
aI104
aI232
aI103
aI187
aI121
aI130
aI138
aI244
aI149
aI117
aI176
aI233
aI175
aI154
aI187
aI147
aI178
aI81
aI188
aI71
aI209
aI51
aI209
aI180
aI238
aI118
aI232
aI246
aI206
aI235
aI213
aI32
aI209
aI80
aI230
aI64
aI236
aI248
aI220
aI180
aI219
aI33
aI213
aI56
aI216
aI115
aI194
aI108
aI217
aI8
aI215
aI120
aI198
aI114
aI170
aI44
aI174
aI77
aI123
aI157
aI154
aI42
aI143
aI30
aI120
aI217
aI110
aI145
aI144
aI217
aI152
aI146
aI161
aI42
aI159
aI2
aI197
aI255
aI194
aI41
aI194
aI124
aI201
aI89
aI211
aI228
aI213
aI196
aI232
aI239
aI213
aI76
aI220
aI2
aI236
aI234
aI225
aI7
aI221
aI110
aI235
aI71
aI242
aI79
aI232
aI72
aI220
aI74
aI225
aI176
aI209
aI178
aI201
aI49
aI207
aI201
aI194
aI67
aI196
aI34
aI172
aI96
aI165
aI138
aI161
aI31
aI156
aI218
aI137
aI100
aI113
aI150
aI132
aI85
aI153
aI91
aI171
aI87
aI180
aI51
aI173
aI249
aI202
aI236
aI194
aI37
aI207
aI20
aI225
aI204
aI213
aI159
aI234
aI24
aI245
aI255
aI255
aI172
aI238
aI156
aI228
aI52
aI232
aI142
aI216
aI197
aI230
aI29
aI233
aI83
aI239
aI0
aI215
aI17
aI210
aI31
aI205
aI128
aI208
aI100
aI198
aI132
aI195
aI10
aI184
aI184
aI147
aI116
aI172
aI154
aI152
aI162
aI132
aI88
aI119
aI94
aI147
aI51
aI144
aI204
aI167
aI8
aI176
aI142
aI207
aI235
aI190
aI196
aI206
aI219
aI206
aI162
aI214
aI141
aI232
aI181
aI233
aI74
aI231
aI252
aI227
aI226
aI231
aI184
aI248
aI234
aI235
aI171
aI254
aI91
aI242
aI132
aI234
aI49
aI236
aI10
aI220
aI73
aI230
aI215
aI219
aI143
aI211
aI26
aI207
aI103
aI187
aI192
aI174
aI187
aI173
aI166
aI165
aI216
aI148
aI183
aI124
aI113
aI114
aI144
aI137
aI107
aI155
aI50
aI169
aI54
aI192
aI29
aI187
aI169
aI200
aI207
aI196
aI195
aI205
aI65
aI224
aI222
aI221
aI155
aI250
aI74
aI244
aI62
aI221
aI66
aI231
aI29
aI226
aI201
aI243
aI41
aI246
aI174
aI230
aI28
aI242
aI25
aI229
aI220
aI226
aI95
aI213
aI198
aI231
aI190
aI227
aI173
aI213
aI57
aI181
aI187
aI186
aI208
aI174
aI166
aI168
aI218
aI153
aI219
aI125
a.