((lp0
I126
aI148
aI131
aI94
aI129
aI153
aI130
aI95
aI131
aI138
aI131
aI14
aI130
aI76
aI131
aI71
aI130
aI83
aI128
aI161
aI130
aI2
aI130
aI139
aI131
aI9
aI130
aI208
aI130
aI254
aI130
aI200
aI130
aI124
aI131
aI134
aI130
aI212
aI130
aI153
aI130
aI55
aI130
aI20
aI129
aI173
aI130
aI17
aI130
aI54
aI130
aI132
aI130
aI85
aI129
aI155
aI130
aI175
aI130
aI68
aI129
aI234
aI130
aI225
aI130
aI67
aI130
aI70
aI130
aI136
aI130
aI109
aI129
aI253
aI130
aI151
aI130
aI62
aI130
aI83
aI129
aI231
aI130
aI77
aI130
aI80
aI130
aI161
aI129
aI148
aI129
aI96
aI130
aI86
aI130
aI45
aI130
aI74
aI130
aI133
aI129
aI200
aI130
aI21
aI131
aI38
aI129
aI232
aI130
aI56
aI130
aI187
aI129
aI148
aI129
aI41
aI129
aI134
aI129
aI89
aI130
aI150
aI130
aI23
aI129
aI216
aI131
aI150
aI130
aI17
aI130
aI150
aI129
aI103
aI130
aI8
aI131
aI129
aI130
aI78
aI130
aI185
aI130
aI38
aI131
aI33
aI130
aI122
aI131
aI167
aI130
aI65
aI130
aI89
aI130
aI160
aI130
aI218
aI130
aI220
aI130
aI137
aI130
aI124
aI130
aI81
aI129
aI144
aI130
aI153
aI131
aI36
aI131
aI21
aI130
aI80
aI130
aI78
aI130
aI9
aI130
aI93
aI130
aI55
aI129
aI238
aI130
aI145
aI130
aI60
aI131
aI70
aI130
aI172
aI131
aI217
aI131
aI67
aI130
aI176
aI130
aI205
aI131
aI40
aI131
aI102
aI130
aI150
aI130
aI164
aI130
aI50
aI132
aI50
aI130
aI13
aI130
aI188
aI131
aI0
aI131
aI150
aI131
aI52
aI130
aI79
aI130
aI255
aI130
aI225
aI130
aI222
aI130
aI97
aI130
aI173
aI131
aI55
aI130
aI186
aI130
aI242
aI130
aI112
aI130
aI243
aI130
aI210
aI129
aI193
aI130
aI117
aI130
aI118
aI130
aI197
aI130
aI214
a(lp1
I129
aI119
aI131
aI122
aI131
aI46
aI130
aI102
aI130
aI35
aI129
aI254
aI130
aI166
aI130
aI47
aI131
aI18
aI130
aI67
aI130
aI65
aI129
aI172
aI129
aI146
aI130
aI59
aI131
aI74
aI130
aI254
aI131
aI34
aI130
aI159
aI130
aI116
aI129
aI202
aI129
aI248
aI129
aI207
aI129
aI254
aI129
aI141
aI129
aI248
aI130
aI66
aI130
aI246
aI130
aI17
aI129
aI147
aI129
aI237
aI130
aI20
aI129
aI120
aI129
aI194
aI131
aI137
aI130
aI241
aI131
aI13
aI131
aI45
aI130
aI108
aI130
aI241
aI130
aI138
aI130
aI102
aI130
aI165
aI130
aI151
aI129
aI242
aI131
aI129
aI131
aI41
aI130
aI116
aI130
aI176
aI130
aI73
aI130
aI230
aI130
aI169
aI130
aI9
aI131
aI99
aI130
aI35
aI131
aI23
aI130
aI9
aI130
aI136
aI130
aI147
aI131
aI77
aI130
aI156
aI130
aI174
aI130
aI237
aI130
aI96
aI130
aI111
aI130
aI180
aI130
aI119
aI130
aI76
aI130
aI161
aI131
aI88
aI131
aI17
aI130
aI187
aI130
aI131
aI129
aI238
aI131
aI45
aI130
aI222
aI129
aI251
aI130
aI90
aI131
aI96
aI131
aI21
aI131
aI43
aI131
aI19
aI130
aI150
aI130
aI57
aI130
aI38
aI130
aI69
aI131
aI20
aI129
aI226
aI129
aI238
aI129
aI197
aI130
aI53
aI130
aI145
aI130
aI91
aI131
aI2
aI129
aI211
aI129
aI233
aI130
aI101
aI130
aI161
aI131
aI78
aI131
aI21
aI130
aI188
aI131
aI87
aI130
aI238
aI130
aI167
aI130
aI140
aI132
aI27
aI130
aI241
aI130
aI66
aI130
aI63
aI130
aI82
aI131
aI34
aI130
aI141
aI131
aI56
aI130
aI172
aI131
aI17
aI130
aI138
aI130
aI55
aI130
aI110
aI130
aI13
aI130
aI85
aI130
aI134
aI129
aI237
aI131
aI5
aI129
aI238
aI129
aI187
aI130
aI76
aI130
aI140
aI130
aI127
aI130
aI196
aI130
aI85
atp2
.